Microchip MPLAB XC8 Compiler V2.00 ()

Linker command line:

-W-3 --edf=C:\Program Files (x86)\Microchip\xc8\v2.00\pic\dat\en_msgs.txt \
  -cs -h+dist/default/production\MPLAB_XC8.production.sym \
  --cmf=dist/default/production\MPLAB_XC8.production.cmf -z -Q12F1840 \
  -oC:\Users\ciro_\AppData\Local\Temp\sbmk.2 --defsym=__MPLAB_BUILD=1 \
  -Mdist/default/production/MPLAB_XC8.production.map -E1 -ver=XC8 \
  --acfsm=1493 -ASTACK=020B0h-020efh -pstack=STACK -ACODE=00h-07FFhx2 \
  -ASTRCODE=00h-0FFFh -ASTRING=00h-0FFhx16 -ACONST=00h-0FFhx16 \
  -AENTRY=00h-0FFhx16 -ACOMMON=070h-07Fh -ABANK0=020h-06Fh \
  -ABANK1=0A0h-0EFh -ABANK2=0120h-016Fh -ABIGRAM=02000h-020EFh \
  -ARAM=020h-06Fh,0A0h-0EFh,0120h-016Fh \
  -AABS1=020h-07Fh,0A0h-0EFh,0120h-016Fh -ASFR0=00h-01Fh -ASFR1=080h-09Fh \
  -ASFR2=0100h-011Fh -ASFR3=0180h-01EFh -ASFR4=0200h-026Fh \
  -ASFR5=0280h-02EFh -ASFR6=0300h-036Fh -ASFR7=0380h-03EFh \
  -ASFR8=0400h-046Fh -ASFR9=0480h-04EFh -ASFR10=0500h-056Fh \
  -ASFR11=0580h-05EFh -ASFR12=0600h-066Fh -ASFR13=0680h-06EFh \
  -ASFR14=0700h-076Fh -ASFR15=0780h-07EFh -ASFR16=0800h-086Fh \
  -ASFR17=0880h-08EFh -ASFR18=0900h-096Fh -ASFR19=0980h-09EFh \
  -ASFR20=0A00h-0A6Fh -ASFR21=0A80h-0AEFh -ASFR22=0B00h-0B6Fh \
  -ASFR23=0B80h-0BEFh -ASFR24=0C00h-0C6Fh -ASFR25=0C80h-0CEFh \
  -ASFR26=0D00h-0D6Fh -ASFR27=0D80h-0DEFh -ASFR28=0E00h-0E6Fh \
  -ASFR29=0E80h-0EEFh -ASFR30=0F00h-0F6Fh -ASFR31=0F80h-0FEFh \
  -preset_vec=00h,intentry=04h,init,end_init -ppowerup=CODE -pcinit=CODE \
  -pfunctab=ENTRY -ACONFIG=08007h-08008h -pconfig=CONFIG -DCONFIG=2 \
  -AIDLOC=08000h-08003h -pidloc=IDLOC -DIDLOC=2 -AEEDATA=00h-0FFh/0F000h \
  -peeprom_data=EEDATA -DEEDATA=2 -DCODE=2 -DSTRCODE=2 -DSTRING=2 -DCONST=2 \
  -DENTRY=2 -k C:\Users\ciro_\AppData\Local\Temp\sbmk.o \
  dist/default/production\MPLAB_XC8.production.o 

Object code version is 3.11

Machine type is 12F1840



                Name                               Link     Load   Length Selector   Space Scale
C:\Users\ciro_\AppData\Local\Temp\sbmk.o
                end_init                             BE       BE        2        8       0
                reset_vec                             0        0        2        0       0
                config                             8007     8007        2    1000E       0
dist/default/production\MPLAB_XC8.production.o
                cinit                                C0       C0       19        8       0
                intentry                              4        4       BA        8       0
                eeprom_data                           0     F000       20    1E000       3
                text21                              57B      57B       25        8       0
                text20                              5B5      5B5       15        8       0
                text18                              5E8      5E8        C      BB4       0
                text17                              4C6      4C6       62        8       0
                text15                               D9       D9      1CB        8       0
                text13                              2A4      2A4      16C        8       0
                text12                              528      528       53        8       0
                text10                              5DA      5DA        E      BB4       0
                text6                               410      410       B6        8       0
                text4                               5A0      5A0       15        8       0
                swtext1                             5CA      5CA       10      B94       0
                maintext                            806      806      7FA     100C       0
                cstackBANK0                          20       20       4C       20       1
                cstackCOMMON                         70       70        D       70       1
                cstackBANK1                          D4       D4       18       A0       1
                clrtext                             5F4      5F4        6      BB4       0
                bssBANK2                            120      120       10      120       1
                dataBANK1                            EC       EC        1       A0       1
                bssBANK1                             A0       A0       34       A0       1
                bitbssBANK0                         360       6C        1       20       1     8
                bitbssCOMMON                        3E8       7D        1       70       1     8

TOTAL           Name                               Link     Load   Length     Space
        CLASS   STACK          

        CLASS   CODE           
                end_init                             BE       BE        2         0
                cinit                                C0       C0       19         0
                intentry                              4        4       BA         0
                reset_vec                             0        0        2         0
                text21                              57B      57B       25         0
                text20                              5B5      5B5       15         0
                text18                              5E8      5E8        C         0
                text17                              4C6      4C6       62         0
                text15                               D9       D9      1CB         0
                text13                              2A4      2A4      16C         0
                text12                              528      528       53         0
                text10                              5DA      5DA        E         0
                text6                               410      410       B6         0
                text4                               5A0      5A0       15         0
                maintext                            806      806      7FA         0
                clrtext                             5F4      5F4        6         0

        CLASS   STRCODE        

        CLASS   STRING         

        CLASS   CONST          
                swtext1                             5CA      5CA       10         0

        CLASS   ENTRY          

        CLASS   COMMON         
                cstackCOMMON                         70       70        D         1
                bitbssCOMMON                        3E8       7D        1         1

        CLASS   BANK0          
                cstackBANK0                          20       20       4C         1
                bitbssBANK0                         360       6C        1         1

        CLASS   BANK1          
                cstackBANK1                          D4       D4       18         1
                dataBANK1                            EC       EC        1         1
                bssBANK1                             A0       A0       34         1

        CLASS   BANK2          
                bssBANK2                            120      120       10         1

        CLASS   BIGRAM         

        CLASS   RAM            

        CLASS   ABS1           
                abs_s1                               7E       7E        2         1

        CLASS   SFR0           

        CLASS   SFR1           

        CLASS   SFR2           

        CLASS   SFR3           

        CLASS   SFR4           

        CLASS   SFR5           

        CLASS   SFR6           

        CLASS   SFR7           

        CLASS   SFR8           

        CLASS   SFR9           

        CLASS   SFR10          

        CLASS   SFR11          

        CLASS   SFR12          

        CLASS   SFR13          

        CLASS   SFR14          

        CLASS   SFR15          

        CLASS   SFR16          

        CLASS   SFR17          

        CLASS   SFR18          

        CLASS   SFR19          

        CLASS   SFR20          

        CLASS   SFR21          

        CLASS   SFR22          

        CLASS   SFR23          

        CLASS   SFR24          

        CLASS   SFR25          

        CLASS   SFR26          

        CLASS   SFR27          

        CLASS   SFR28          

        CLASS   SFR29          

        CLASS   SFR30          

        CLASS   SFR31          

        CLASS   CONFIG         
                config                             8007     8007        2         0

        CLASS   IDLOC          

        CLASS   EEDATA         
                eeprom_data                           0     F000       20         3

        CLASS   BANK31         

        CLASS   BANK30         

        CLASS   BANK29         

        CLASS   BANK28         

        CLASS   BANK27         

        CLASS   BANK26         

        CLASS   BANK25         

        CLASS   BANK24         

        CLASS   BANK23         

        CLASS   BANK22         

        CLASS   BANK21         

        CLASS   BANK20         

        CLASS   BANK19         

        CLASS   BANK18         

        CLASS   BANK17         

        CLASS   BANK16         

        CLASS   BANK15         

        CLASS   BANK14         

        CLASS   BANK13         

        CLASS   BANK12         

        CLASS   BANK11         

        CLASS   BANK10         

        CLASS   BANK9          

        CLASS   BANK8          

        CLASS   BANK7          

        CLASS   BANK6          

        CLASS   BANK5          

        CLASS   BANK4          

        CLASS   BANK3          



SEGMENTS        Name                           Load    Length   Top    Selector   Space  Class     Delta

                reset_vec                      000000  000002  000002         0       0  CODE        2
                intentry                       000004  0005C6  0005CA         8       0  CODE        2
                cstackBANK0                    000020  00004D  00006D        20       1  BANK0       1
                cstackCOMMON                   000070  00000E  00007E        70       1  COMMON      1
                bssBANK1                       0000A0  00004D  0000ED        A0       1  BANK1       1
                bssBANK2                       000120  000010  000130       120       1  BANK2       1
                swtext1                        0005CA  000010  0005DA       B94       0  CONST       2
                text10                         0005DA  000020  0005FA       BB4       0  CODE        2
                maintext                       000806  0007FA  001000      100C       0  CODE        2
                config                         008007  000002  008009     1000E       0  CONFIG      2
                eeprom_data                    00F000  000020  00F020     1E000       3  EEDATA      2


UNUSED ADDRESS RANGES

        Name                Unused          Largest block    Delta
        BANK0            0006D-0006F               3           1
        BANK1            000ED-000EF               3           1
        BANK2            00130-0016F              40           1
        BIGRAM           02000-020EF              F0           1
        CODE             00002-00003               2           2
                         005FA-00805             206
        CONST            00002-00003               2           2
                         005FA-00805             100
        EEDATA           0F020-0F0FF              E0           2
        ENTRY            00002-00003               2           2
                         005FA-00805             100
        IDLOC            08000-08003               4           2
        RAM              0006D-0006F               3           1
                         000ED-000EF               3
                         00130-0016F              40
        SFR0             00000-0001F              20           1
        SFR1             00080-0009F              20           1
        SFR10            00500-0056F              70           1
        SFR11            00580-005EF              70           1
        SFR12            00600-0066F              70           1
        SFR13            00680-006EF              70           1
        SFR14            00700-0076F              70           1
        SFR15            00780-007EF              70           1
        SFR16            00800-0086F              70           1
        SFR17            00880-008EF              70           1
        SFR18            00900-0096F              70           1
        SFR19            00980-009EF              70           1
        SFR2             00100-0011F              20           1
        SFR20            00A00-00A6F              70           1
        SFR21            00A80-00AEF              70           1
        SFR22            00B00-00B6F              70           1
        SFR23            00B80-00BEF              70           1
        SFR24            00C00-00C6F              70           1
        SFR25            00C80-00CEF              70           1
        SFR26            00D00-00D6F              70           1
        SFR27            00D80-00DEF              70           1
        SFR28            00E00-00E6F              70           1
        SFR29            00E80-00EEF              70           1
        SFR3             00180-001EF              70           1
        SFR30            00F00-00F6F              70           1
        SFR31            00F80-00FEF              70           1
        SFR4             00200-0026F              70           1
        SFR5             00280-002EF              70           1
        SFR6             00300-0036F              70           1
        SFR7             00380-003EF              70           1
        SFR8             00400-0046F              70           1
        SFR9             00480-004EF              70           1
        STACK            020B0-020EF              40           1
        STRCODE          00002-00003               2           2
                         005FA-00805             20C
        STRING           00002-00003               2           2
                         005FA-00805             100

                                  Symbol Table

?__Umul8_16               cstackBANK0  00022
?___fladd                 cstackBANK0  00043
?___flmul                 cstackBANK0  0002A
?___flsub                 cstackBANK0  00057
?___fltol                 cstackBANK0  00022
?___lwdiv                 cstackCOMMON 00076
?___wmul                  cstackBANK0  00022
?___xxtofl                cstackBANK0  00026
?_abs                     cstackBANK0  00022
?_calculate_pidA          cstackBANK0  0005F
?i1___wmul                cstackCOMMON 00070
M_control@ctr             cstackBANK0  0002C
PWM_set_duty@duty         cstackBANK0  00022
_ANSELA                   (abs)        0018C
_APFCONbits               (abs)        0011D
_CCP1CON                  (abs)        00293
_CCPR1L                   (abs)        00291
_EEADR                    (abs)        00191
_EECON1                   (abs)        00195
_EECON1bits               (abs)        00195
_EECON2                   (abs)        00196
_EEDATA                   (abs)        00193
_I2C_buffer               bssBANK1     000A0
_INTCON                   (abs)        0000B
_INTCONbits               (abs)        0000B
_IOCAFbits                (abs)        00393
_IOCANbits                (abs)        00392
_LATAbits                 (abs)        0010C
_M_control                maintext     00AFC
_OPTION_REGbits           (abs)        00095
_OSCCON                   (abs)        00099
_PIE1bits                 (abs)        00091
_PIE2bits                 (abs)        00092
_PIR1bits                 (abs)        00011
_PIR2bits                 (abs)        00012
_PORTAbits                (abs)        0000C
_PR2                      (abs)        0001B
_PWM_Init                 text18       005E8
_PWM_set_duty             maintext     00B88
_SSP1ADD                  (abs)        00212
_SSP1BUF                  (abs)        00211
_SSP1CON1                 (abs)        00215
_SSP1CON1bits             (abs)        00215
_SSP1CON2bits             (abs)        00216
_SSP1CON3bits             (abs)        00217
_SSP1STAT                 (abs)        00214
_SSP1STATbits             (abs)        00214
_STATUSbits               (abs)        00003
_T1CON                    (abs)        00018
_T1CONbits                (abs)        00018
_T2CON                    (abs)        0001C
_TRISA                    (abs)        0008C
_WPUA                     (abs)        0020C
__Babs1                   abs1         1E040
__Bbank0                  bank0        1E040
__Bbank1                  bank1        1E040
__Bbank10                 bank10       1E040
__Bbank11                 bank11       1E040
__Bbank12                 bank12       1E040
__Bbank13                 bank13       1E040
__Bbank14                 bank14       1E040
__Bbank15                 bank15       1E040
__Bbank16                 bank16       1E040
__Bbank17                 bank17       1E040
__Bbank18                 bank18       1E040
__Bbank19                 bank19       1E040
__Bbank2                  bank2        1E040
__Bbank20                 bank20       1E040
__Bbank21                 bank21       1E040
__Bbank22                 bank22       1E040
__Bbank23                 bank23       1E040
__Bbank24                 bank24       1E040
__Bbank25                 bank25       1E040
__Bbank26                 bank26       1E040
__Bbank27                 bank27       1E040
__Bbank28                 bank28       1E040
__Bbank29                 bank29       1E040
__Bbank3                  bank3        1E040
__Bbank30                 bank30       1E040
__Bbank31                 bank31       1E040
__Bbank4                  bank4        1E040
__Bbank5                  bank5        1E040
__Bbank6                  bank6        1E040
__Bbank7                  bank7        1E040
__Bbank8                  bank8        1E040
__Bbank9                  bank9        1E040
__Bbigram                 bigram       1E040
__BbitbssBANK0            bitbssBANK0  1E040
__BbitbssCOMMON           bitbssCOMMON 1E040
__BbssBANK1               bssBANK1     1E040
__BbssBANK2               bssBANK2     1E040
__Bclrtext                clrtext      1E040
__Bcode                   code         1E040
__Bcommon                 common       1E040
__BcstackBANK0            cstackBANK0  1E040
__BcstackBANK1            cstackBANK1  1E040
__BcstackCOMMON           cstackCOMMON 1E040
__BdataBANK1              dataBANK1    1E040
__Beeprom_data            eeprom_data  0F000
__Bmaintext               maintext     1E040
__Bpa_nodes0              pa_nodes0    1E040
__Bram                    ram          1E040
__Bsfr0                   sfr0         1E040
__Bsfr1                   sfr1         1E040
__Bsfr10                  sfr10        1E040
__Bsfr11                  sfr11        1E040
__Bsfr12                  sfr12        1E040
__Bsfr13                  sfr13        1E040
__Bsfr14                  sfr14        1E040
__Bsfr15                  sfr15        1E040
__Bsfr16                  sfr16        1E040
__Bsfr17                  sfr17        1E040
__Bsfr18                  sfr18        1E040
__Bsfr19                  sfr19        1E040
__Bsfr2                   sfr2         1E040
__Bsfr20                  sfr20        1E040
__Bsfr21                  sfr21        1E040
__Bsfr22                  sfr22        1E040
__Bsfr23                  sfr23        1E040
__Bsfr24                  sfr24        1E040
__Bsfr25                  sfr25        1E040
__Bsfr26                  sfr26        1E040
__Bsfr27                  sfr27        1E040
__Bsfr28                  sfr28        1E040
__Bsfr29                  sfr29        1E040
__Bsfr3                   sfr3         1E040
__Bsfr30                  sfr30        1E040
__Bsfr31                  sfr31        1E040
__Bsfr4                   sfr4         1E040
__Bsfr5                   sfr5         1E040
__Bsfr6                   sfr6         1E040
__Bsfr7                   sfr7         1E040
__Bsfr8                   sfr8         1E040
__Bsfr9                   sfr9         1E040
__Bstrings                strings      1E040
__Btext                   text         1E040
__CFG_BOREN$ON            (abs)        00000
__CFG_BORV$LO             (abs)        00000
__CFG_CLKOUTEN$OFF        (abs)        00000
__CFG_CP$OFF              (abs)        00000
__CFG_CPD$OFF             (abs)        00000
__CFG_FCMEN$OFF           (abs)        00000
__CFG_FOSC$INTOSC         (abs)        00000
__CFG_IESO$OFF            (abs)        00000
__CFG_LVP$OFF             (abs)        00000
__CFG_MCLRE$OFF           (abs)        00000
__CFG_PLLEN$ON            (abs)        00000
__CFG_PWRTE$ON            (abs)        00000
__CFG_STVREN$ON           (abs)        00000
__CFG_WDTE$ON             (abs)        00000
__CFG_WRT$OFF             (abs)        00000
__Habs1                   abs1         00040
__Hbank0                  bank0        00040
__Hbank1                  bank1        00040
__Hbank10                 bank10       00040
__Hbank11                 bank11       00040
__Hbank12                 bank12       00040
__Hbank13                 bank13       00040
__Hbank14                 bank14       00040
__Hbank15                 bank15       00040
__Hbank16                 bank16       00040
__Hbank17                 bank17       00040
__Hbank18                 bank18       00040
__Hbank19                 bank19       00040
__Hbank2                  bank2        00040
__Hbank20                 bank20       00040
__Hbank21                 bank21       00040
__Hbank22                 bank22       00040
__Hbank23                 bank23       00040
__Hbank24                 bank24       00040
__Hbank25                 bank25       00040
__Hbank26                 bank26       00040
__Hbank27                 bank27       00040
__Hbank28                 bank28       00040
__Hbank29                 bank29       00040
__Hbank3                  bank3        00040
__Hbank30                 bank30       00040
__Hbank31                 bank31       00040
__Hbank4                  bank4        00040
__Hbank5                  bank5        00040
__Hbank6                  bank6        00040
__Hbank7                  bank7        00040
__Hbank8                  bank8        00040
__Hbank9                  bank9        00040
__Hbigram                 bigram       00040
__HbitbssBANK0            bitbssBANK0  F0200
__HbitbssCOMMON           bitbssCOMMON F0200
__HbssBANK1               bssBANK1     00040
__HbssBANK2               bssBANK2     00040
__Hcinit                  cinit        000D9
__Hclrtext                clrtext      00040
__Hcode                   code         00040
__Hcommon                 common       00040
__Hconfig                 config       08009
__HcstackBANK0            cstackBANK0  00040
__HcstackBANK1            cstackBANK1  00040
__HcstackCOMMON           cstackCOMMON 00040
__HdataBANK1              dataBANK1    00040
__Heeprom_data            eeprom_data  00020
__Hend_init               end_init     000C0
__Hfunctab                functab      00000
__HidataBANK1             idataBANK1   1E040
__Hidloc                  idloc        00000
__Hinit                   init         000BE
__Hintentry               intentry     000BE
__Hmaintext               maintext     00040
__Hpa_nodes0              pa_nodes0    00040
__Hpowerup                powerup      00000
__Hram                    ram          00040
__Hreset_vec              reset_vec    00002
__Hsfr0                   sfr0         00040
__Hsfr1                   sfr1         00040
__Hsfr10                  sfr10        00040
__Hsfr11                  sfr11        00040
__Hsfr12                  sfr12        00040
__Hsfr13                  sfr13        00040
__Hsfr14                  sfr14        00040
__Hsfr15                  sfr15        00040
__Hsfr16                  sfr16        00040
__Hsfr17                  sfr17        00040
__Hsfr18                  sfr18        00040
__Hsfr19                  sfr19        00040
__Hsfr2                   sfr2         00040
__Hsfr20                  sfr20        00040
__Hsfr21                  sfr21        00040
__Hsfr22                  sfr22        00040
__Hsfr23                  sfr23        00040
__Hsfr24                  sfr24        00040
__Hsfr25                  sfr25        00040
__Hsfr26                  sfr26        00040
__Hsfr27                  sfr27        00040
__Hsfr28                  sfr28        00040
__Hsfr29                  sfr29        00040
__Hsfr3                   sfr3         00040
__Hsfr30                  sfr30        00040
__Hsfr31                  sfr31        00040
__Hsfr4                   sfr4         00040
__Hsfr5                   sfr5         00040
__Hsfr6                   sfr6         00040
__Hsfr7                   sfr7         00040
__Hsfr8                   sfr8         00040
__Hsfr9                   sfr9         00040
__Hspace_0                (abs)        F0200
__Hspace_1                (abs)        003E9
__Hspace_2                (abs)        00000
__Hspace_3                (abs)        00020
__Hstack                  stack        00000
__Hstrings                strings      00040
__Htext                   text         00040
__Labs1                   abs1         00040
__Lbank0                  bank0        00040
__Lbank1                  bank1        00040
__Lbank10                 bank10       00040
__Lbank11                 bank11       00040
__Lbank12                 bank12       00040
__Lbank13                 bank13       00040
__Lbank14                 bank14       00040
__Lbank15                 bank15       00040
__Lbank16                 bank16       00040
__Lbank17                 bank17       00040
__Lbank18                 bank18       00040
__Lbank19                 bank19       00040
__Lbank2                  bank2        00040
__Lbank20                 bank20       00040
__Lbank21                 bank21       00040
__Lbank22                 bank22       00040
__Lbank23                 bank23       00040
__Lbank24                 bank24       00040
__Lbank25                 bank25       00040
__Lbank26                 bank26       00040
__Lbank27                 bank27       00040
__Lbank28                 bank28       00040
__Lbank29                 bank29       00040
__Lbank3                  bank3        00040
__Lbank30                 bank30       00040
__Lbank31                 bank31       00040
__Lbank4                  bank4        00040
__Lbank5                  bank5        00040
__Lbank6                  bank6        00040
__Lbank7                  bank7        00040
__Lbank8                  bank8        00040
__Lbank9                  bank9        00040
__Lbigram                 bigram       00040
__LbitbssBANK0            bitbssBANK0  F0200
__LbitbssCOMMON           bitbssCOMMON F0200
__LbssBANK1               bssBANK1     00040
__LbssBANK2               bssBANK2     00040
__Lcinit                  cinit        000C0
__Lclrtext                clrtext      00040
__Lcode                   code         00040
__Lcommon                 common       00040
__Lconfig                 config       08007
__LcstackBANK0            cstackBANK0  00040
__LcstackBANK1            cstackBANK1  00040
__LcstackCOMMON           cstackCOMMON 00040
__LdataBANK1              dataBANK1    00040
__Leeprom_data            eeprom_data  00000
__Lend_init               end_init     000BE
__Lfunctab                functab      00000
__LidataBANK1             idataBANK1   1E040
__Lidloc                  idloc        00000
__Linit                   init         000BE
__Lintentry               intentry     00004
__Lmaintext               maintext     00040
__Lpa_nodes0              pa_nodes0    00040
__Lpowerup                powerup      00000
__Lram                    ram          00040
__Lreset_vec              reset_vec    00000
__Lsfr0                   sfr0         00040
__Lsfr1                   sfr1         00040
__Lsfr10                  sfr10        00040
__Lsfr11                  sfr11        00040
__Lsfr12                  sfr12        00040
__Lsfr13                  sfr13        00040
__Lsfr14                  sfr14        00040
__Lsfr15                  sfr15        00040
__Lsfr16                  sfr16        00040
__Lsfr17                  sfr17        00040
__Lsfr18                  sfr18        00040
__Lsfr19                  sfr19        00040
__Lsfr2                   sfr2         00040
__Lsfr20                  sfr20        00040
__Lsfr21                  sfr21        00040
__Lsfr22                  sfr22        00040
__Lsfr23                  sfr23        00040
__Lsfr24                  sfr24        00040
__Lsfr25                  sfr25        00040
__Lsfr26                  sfr26        00040
__Lsfr27                  sfr27        00040
__Lsfr28                  sfr28        00040
__Lsfr29                  sfr29        00040
__Lsfr3                   sfr3         00040
__Lsfr30                  sfr30        00040
__Lsfr31                  sfr31        00040
__Lsfr4                   sfr4         00040
__Lsfr5                   sfr5         00040
__Lsfr6                   sfr6         00040
__Lsfr7                   sfr7         00040
__Lsfr8                   sfr8         00040
__Lsfr9                   sfr9         00040
__Lspace_0                (abs)        00000
__Lspace_1                (abs)        00000
__Lspace_2                (abs)        00000
__Lspace_3                (abs)        00000
__Lstack                  stack        00000
__Lstrings                strings      00040
__Ltext                   text         00040
__S0                      (abs)        08009
__S1                      (abs)        00130
__S2                      (abs)        00000
__S3                      (abs)        0F020
__Umul8_16                text15       0025B
__Umul8_16@multiplicand   cstackBANK0  00022
__Umul8_16@multiplier     cstackBANK0  00027
__Umul8_16@product        cstackBANK0  00025
__Umul8_16@word_mpld      cstackBANK0  00028
___fladd                  text13       002C0
___fladd@a                cstackBANK0  00047
___fladd@aexp             cstackBANK0  00054
___fladd@b                cstackBANK0  00043
___fladd@bexp             cstackBANK0  00055
___fladd@grs              cstackBANK0  00056
___fladd@signs            cstackBANK0  00053
___flge                   text17       004C6
___flge@ff1               cstackBANK0  00034
___flge@ff2               cstackBANK0  00038
___flmul                  text15       000D9
___flmul@a                cstackBANK0  0002E
___flmul@aexp             cstackBANK0  00037
___flmul@b                cstackBANK0  0002A
___flmul@bexp             cstackBANK0  00038
___flmul@grs              cstackBANK0  00039
___flmul@prod             cstackBANK0  0003D
___flmul@sign             cstackBANK0  00036
___flmul@temp             cstackBANK0  00041
___flsub                  text13       002A4
___flsub@a                cstackBANK0  00057
___flsub@b                cstackBANK0  0005B
___fltol                  text12       00528
___fltol@exp1             cstackBANK0  0002B
___fltol@f1               cstackBANK0  00022
___fltol@sign1            cstackBANK0  0002A
___int_sp                 stack        00000
___latbits                (abs)        00001
___lwdiv                  text21       0057B
___lwdiv@counter          cstackCOMMON 0007C
___lwdiv@dividend         cstackCOMMON 00078
___lwdiv@divisor          cstackCOMMON 00076
___lwdiv@quotient         cstackCOMMON 0007A
___sp                     stack        00000
___wmul                   text4        005A0
___wmul@multiplicand      cstackBANK0  00024
___wmul@multiplier        cstackBANK0  00022
___wmul@product           cstackBANK0  00026
___xxtofl                 maintext     00DDC
___xxtofl@arg             cstackBANK0  00030
___xxtofl@exp             cstackBANK0  0002F
___xxtofl@sign            cstackBANK0  0002E
___xxtofl@val             cstackBANK0  00026
__end_of_M_control        maintext     00B34
__end_of_PWM_Init         text18       005F4
__end_of_PWM_set_duty     maintext     00BA7
__end_of__Umul8_16        text15       002A4
__end_of___fladd          text13       00410
__end_of___flge           text17       00528
__end_of___flmul          text15       0025B
__end_of___flsub          text13       002C0
__end_of___fltol          text12       0057B
__end_of___lwdiv          text21       005A0
__end_of___wmul           text4        005B5
__end_of___xxtofl         maintext     00E49
__end_of__initialization  cinit        000D5
__end_of_abs              text10       005E8
__end_of_calculate_pidA   maintext     00DDC
__end_of_calculate_pidM   maintext     01000
__end_of_eeprom_read      text6        004C6
__end_of_eeprom_write     maintext     00AFC
__end_of_init_I2C_buffer  text6        004B4
__end_of_isr              intentry     000BE
__end_of_main             maintext     00ADF
__end_of_pre_pidM         maintext     00B88
__end_ofi1___wmul         text20       005CA
__initialization          cinit        000C0
__pbitbssBANK0            bitbssBANK0  00360
__pbitbssCOMMON           bitbssCOMMON 003E8
__pbssBANK1               bssBANK1     000A0
__pbssBANK2               bssBANK2     00120
__pcstackBANK0            cstackBANK0  00020
__pcstackBANK1            cstackBANK1  000D4
__pcstackCOMMON           cstackCOMMON 00070
__pdataBANK1              dataBANK1    000EC
__pidataBANK1             idataBANK1   00000
__pintentry               intentry     00004
__pmaintext               maintext     00806
__pswtext1                swtext1      005CA
__ptext1                  maintext     00B34
__ptext10                 text10       005DA
__ptext11                 maintext     00DDC
__ptext12                 text12       00528
__ptext13                 text13       002A4
__ptext14                 text13       002C0
__ptext15                 text15       000D9
__ptext16                 text15       0025B
__ptext17                 text17       004C6
__ptext18                 text18       005E8
__ptext2                  maintext     00E49
__ptext20                 text20       005B5
__ptext21                 text21       0057B
__ptext3                  maintext     00AFC
__ptext4                  text4        005A0
__ptext5                  maintext     00B88
__ptext6                  text6        00410
__ptext7                  text6        004B4
__ptext8                  maintext     00ADF
__ptext9                  maintext     00BA7
__size_of_M_control       (abs)        00000
__size_of_PWM_Init        (abs)        00000
__size_of_PWM_set_duty    (abs)        00000
__size_of__Umul8_16       (abs)        00000
__size_of___fladd         (abs)        00000
__size_of___flge          (abs)        00000
__size_of___flmul         (abs)        00000
__size_of___flsub         (abs)        00000
__size_of___fltol         (abs)        00000
__size_of___lwdiv         (abs)        00000
__size_of___wmul          (abs)        00000
__size_of___xxtofl        (abs)        00000
__size_of_abs             (abs)        00000
__size_of_calculate_pidA  (abs)        00000
__size_of_calculate_pidM  (abs)        00000
__size_of_eeprom_read     (abs)        00000
__size_of_eeprom_write    (abs)        00000
__size_of_init_I2C_buffer (abs)        00000
__size_of_isr             (abs)        00000
__size_of_main            (abs)        00000
__size_of_pre_pidM        (abs)        00000
__size_ofi1___wmul        (abs)        00000
_abs                      text10       005DA
_accumulatorA             bssBANK2     00124
_accumulatorM             bssBANK2     0012C
_auxDistance              bssBANK1     000CB
_calculate_pidA           maintext     00BA7
_calculate_pidA$1317      cstackBANK1  000D4
_calculate_pidM           maintext     00E49
_calculate_pidM$1318      cstackBANK1  000E0
_counter                  bssBANK1     000D1
_eeprom_read              text6        004B4
_eeprom_write             maintext     00ADF
_first_i2c                dataBANK1    000EC
_index_i2c                bssBANK1     000D3
_init_I2C_buffer          text6        00410
_isr                      intentry     00004
_lasterrorA               bssBANK2     00120
_lasterrorM               bssBANK2     00128
_loadDistance             bitbssCOMMON 003E8
_lset                     bssBANK1     000CF
_main                     maintext     00806
_pre_pidM                 maintext     00B34
_zero_cross               bitbssBANK0  00360
abs@a                     cstackBANK0  00022
btemp                     (abs)        0007E
calculate_pidA@error      cstackBANK1  000D8
calculate_pidA@pid        cstackBANK1  000DC
calculate_pidA@set        cstackBANK0  0005F
calculate_pidM@error      cstackBANK1  000E4
calculate_pidM@pid        cstackBANK1  000E8
calculate_pidM@set        cstackBANK0  00065
clear_ram0                clrtext      005F4
eeprom_read@addr          cstackBANK0  00022
eeprom_write@addr         cstackBANK0  00023
eeprom_write@value        cstackBANK0  00022
end_of_initialization     cinit        000D5
i1___wmul                 text20       005B5
i1___wmul@multiplicand    cstackCOMMON 00072
i1___wmul@multiplier      cstackCOMMON 00070
i1___wmul@product         cstackCOMMON 00074
int$flags                 (abs)        0007E
intlevel0                 functab      00000
intlevel1                 functab      00000
intlevel2                 functab      00000
intlevel3                 functab      00000
intlevel4                 functab      00000
intlevel5                 functab      00000
pre_pidM@set              cstackBANK0  00067
reset_vec                 reset_vec    00000
stackhi                   (abs)        020EF
stacklo                   (abs)        020B0
start                     init         000BE
start_initialization      cinit        000C0
wtemp0                    (abs)        0007E


FUNCTION INFORMATION:

 *************** function _main *****************
 Defined at:
		line 359 in file "main.c"
 Parameters:    Size  Location     Type
		None
 Auto vars:     Size  Location     Type
		None
 Return value:  Size  Location     Type
                  1    wreg      void 
 Registers used:
		wreg, fsr0l, fsr0h, fsr1l, fsr1h, status,2, status,0, pclath, cstack
 Tracked objects:
		On entry : 
		On exit  : 
		Unchanged: 
 Data sizes:     COMMON   BANK0   BANK1   BANK2
      Params:         0       0       0       0
      Locals:         0       0       0       0
      Temps:          0       1       0       0
      Totals:         0       1       0       0
Total ram usage:        1 bytes
 Hardware stack levels required when called:    6
 This function calls:
		_M_control
		_PWM_Init
		_PWM_set_duty
		_calculate_pidA
		_calculate_pidM
		_eeprom_write
		_init_I2C_buffer
		_pre_pidM
 This function is called by:
		Startup code after reset
 This function uses a non-reentrant model


 *************** function _pre_pidM *****************
 Defined at:
		line 290 in file "main.c"
 Parameters:    Size  Location     Type
  set             2   71[BANK0 ] int 
 Auto vars:     Size  Location     Type
		None
 Return value:  Size  Location     Type
                  1    wreg      void 
 Registers used:
		wreg, fsr1l, fsr1h, status,2, status,0, pclath, cstack
 Tracked objects:
		On entry : 
		On exit  : 
		Unchanged: 
 Data sizes:     COMMON   BANK0   BANK1   BANK2
      Params:         0       2       0       0
      Locals:         0       0       0       0
      Temps:          0       2       0       0
      Totals:         0       4       0       0
Total ram usage:        4 bytes
 Hardware stack levels used:    1
 Hardware stack levels required when called:    5
 This function calls:
		_calculate_pidM
 This function is called by:
		_main
 This function uses a non-reentrant model


 *************** function _calculate_pidM *****************
 Defined at:
		line 270 in file "main.c"
 Parameters:    Size  Location     Type
  set             2   69[BANK0 ] int 
 Auto vars:     Size  Location     Type
  pid             4   20[BANK1 ] float 
  error           4   16[BANK1 ] float 
 Return value:  Size  Location     Type
                  1    wreg      void 
 Registers used:
		wreg, fsr1l, fsr1h, status,2, status,0, pclath, cstack
 Tracked objects:
		On entry : 
		On exit  : 
		Unchanged: 
 Data sizes:     COMMON   BANK0   BANK1   BANK2
      Params:         0       2       0       0
      Locals:         0       0      12       0
      Temps:          0       0       0       0
      Totals:         0       2      12       0
Total ram usage:       14 bytes
 Hardware stack levels used:    1
 Hardware stack levels required when called:    4
 This function calls:
		_M_control
		___fladd
		___flge
		___flmul
		___flsub
		___fltol
		___xxtofl
 This function is called by:
		_pre_pidM
		_main
 This function uses a non-reentrant model


 *************** function _M_control *****************
 Defined at:
		line 231 in file "main.c"
 Parameters:    Size  Location     Type
  ctr             2   12[BANK0 ] int 
 Auto vars:     Size  Location     Type
		None
 Return value:  Size  Location     Type
                  1    wreg      void 
 Registers used:
		wreg, status,2, status,0, pclath, cstack
 Tracked objects:
		On entry : 
		On exit  : 
		Unchanged: 
 Data sizes:     COMMON   BANK0   BANK1   BANK2
      Params:         0       2       0       0
      Locals:         0       0       0       0
      Temps:          0       1       0       0
      Totals:         0       3       0       0
Total ram usage:        3 bytes
 Hardware stack levels used:    1
 Hardware stack levels required when called:    3
 This function calls:
		_PWM_set_duty
		___wmul
 This function is called by:
		_calculate_pidM
		_main
 This function uses a non-reentrant model


 *************** function ___wmul *****************
 Defined at:
		line 15 in file "C:\Program Files (x86)\Microchip\xc8\v2.00\pic\sources\c90\common\Umul16.c"
 Parameters:    Size  Location     Type
  multiplier      2    2[BANK0 ] unsigned int 
  multiplicand    2    4[BANK0 ] unsigned int 
 Auto vars:     Size  Location     Type
  product         2    6[BANK0 ] unsigned int 
 Return value:  Size  Location     Type
                  2    2[BANK0 ] unsigned int 
 Registers used:
		wreg, status,2, status,0
 Tracked objects:
		On entry : 
		On exit  : 
		Unchanged: 
 Data sizes:     COMMON   BANK0   BANK1   BANK2
      Params:         0       4       0       0
      Locals:         0       2       0       0
      Temps:          0       0       0       0
      Totals:         0       6       0       0
Total ram usage:        6 bytes
 Hardware stack levels used:    1
 Hardware stack levels required when called:    2
 This function calls:
		Nothing
 This function is called by:
		_M_control
 This function uses a non-reentrant model


 *************** function _PWM_set_duty *****************
 Defined at:
		line 222 in file "main.c"
 Parameters:    Size  Location     Type
  duty            2    2[BANK0 ] int 
 Auto vars:     Size  Location     Type
		None
 Return value:  Size  Location     Type
                  2    2[BANK0 ] int 
 Registers used:
		wreg, status,2, status,0
 Tracked objects:
		On entry : 
		On exit  : 
		Unchanged: 
 Data sizes:     COMMON   BANK0   BANK1   BANK2
      Params:         0       2       0       0
      Locals:         0       0       0       0
      Temps:          0       2       0       0
      Totals:         0       4       0       0
Total ram usage:        4 bytes
 Hardware stack levels used:    1
 Hardware stack levels required when called:    2
 This function calls:
		Nothing
 This function is called by:
		_M_control
		_main
 This function uses a non-reentrant model


 *************** function _init_I2C_buffer *****************
 Defined at:
		line 308 in file "main.c"
 Parameters:    Size  Location     Type
		None
 Auto vars:     Size  Location     Type
		None
 Return value:  Size  Location     Type
                  1    wreg      void 
 Registers used:
		wreg, status,2, status,0, pclath, cstack
 Tracked objects:
		On entry : 
		On exit  : 
		Unchanged: 
 Data sizes:     COMMON   BANK0   BANK1   BANK2
      Params:         0       0       0       0
      Locals:         0       0       0       0
      Temps:          0       0       0       0
      Totals:         0       0       0       0
Total ram usage:        0 bytes
 Hardware stack levels used:    1
 Hardware stack levels required when called:    3
 This function calls:
		_eeprom_read
 This function is called by:
		_main
 This function uses a non-reentrant model


 *************** function _eeprom_read *****************
 Defined at:
		line 6 in file "C:\Program Files (x86)\Microchip\xc8\v2.00\pic\sources\c90\pic\__eeread.c"
 Parameters:    Size  Location     Type
  addr            1    wreg     unsigned char 
 Auto vars:     Size  Location     Type
  addr            1    2[BANK0 ] unsigned char 
 Return value:  Size  Location     Type
                  1    wreg      unsigned char 
 Registers used:
		wreg, status,2, status,0
 Tracked objects:
		On entry : 
		On exit  : 
		Unchanged: 
 Data sizes:     COMMON   BANK0   BANK1   BANK2
      Params:         0       0       0       0
      Locals:         0       1       0       0
      Temps:          0       0       0       0
      Totals:         0       1       0       0
Total ram usage:        1 bytes
 Hardware stack levels used:    1
 Hardware stack levels required when called:    2
 This function calls:
		Nothing
 This function is called by:
		_init_I2C_buffer
 This function uses a non-reentrant model


 *************** function _eeprom_write *****************
 Defined at:
		line 6 in file "C:\Program Files (x86)\Microchip\xc8\v2.00\pic\sources\c90\pic\__eewrite.c"
 Parameters:    Size  Location     Type
  addr            1    wreg     unsigned char 
  value           1    2[BANK0 ] unsigned char 
 Auto vars:     Size  Location     Type
  addr            1    3[BANK0 ] unsigned char 
 Return value:  Size  Location     Type
                  1    wreg      void 
 Registers used:
		wreg, status,2, status,0
 Tracked objects:
		On entry : 
		On exit  : 
		Unchanged: 
 Data sizes:     COMMON   BANK0   BANK1   BANK2
      Params:         0       1       0       0
      Locals:         0       1       0       0
      Temps:          0       0       0       0
      Totals:         0       2       0       0
Total ram usage:        2 bytes
 Hardware stack levels used:    1
 Hardware stack levels required when called:    2
 This function calls:
		Nothing
 This function is called by:
		_main
 This function uses a non-reentrant model


 *************** function _calculate_pidA *****************
 Defined at:
		line 250 in file "main.c"
 Parameters:    Size  Location     Type
  set             4   63[BANK0 ] long 
 Auto vars:     Size  Location     Type
  pid             4    8[BANK1 ] float 
  error           4    4[BANK1 ] float 
 Return value:  Size  Location     Type
                  2   63[BANK0 ] int 
 Registers used:
		wreg, fsr1l, fsr1h, status,2, status,0, pclath, cstack
 Tracked objects:
		On entry : 
		On exit  : 
		Unchanged: 
 Data sizes:     COMMON   BANK0   BANK1   BANK2
      Params:         0       4       0       0
      Locals:         0       0      12       0
      Temps:          0       2       0       0
      Totals:         0       6      12       0
Total ram usage:       18 bytes
 Hardware stack levels used:    1
 Hardware stack levels required when called:    4
 This function calls:
		___fladd
		___flge
		___flmul
		___flsub
		___fltol
		___xxtofl
		_abs
 This function is called by:
		_main
 This function uses a non-reentrant model


 *************** function _abs *****************
 Defined at:
		line 4 in file "C:\Program Files (x86)\Microchip\xc8\v2.00\pic\sources\c90\common\abs.c"
 Parameters:    Size  Location     Type
  a               2    2[BANK0 ] int 
 Auto vars:     Size  Location     Type
		None
 Return value:  Size  Location     Type
                  2    2[BANK0 ] int 
 Registers used:
		wreg, status,2, status,0
 Tracked objects:
		On entry : 
		On exit  : 
		Unchanged: 
 Data sizes:     COMMON   BANK0   BANK1   BANK2
      Params:         0       2       0       0
      Locals:         0       0       0       0
      Temps:          0       2       0       0
      Totals:         0       4       0       0
Total ram usage:        4 bytes
 Hardware stack levels used:    1
 Hardware stack levels required when called:    2
 This function calls:
		Nothing
 This function is called by:
		_calculate_pidA
 This function uses a non-reentrant model


 *************** function ___xxtofl *****************
 Defined at:
		line 10 in file "C:\Program Files (x86)\Microchip\xc8\v2.00\pic\sources\c90\common\xxtofl.c"
 Parameters:    Size  Location     Type
  sign            1    wreg     unsigned char 
  val             4    6[BANK0 ] long 
 Auto vars:     Size  Location     Type
  sign            1   14[BANK0 ] unsigned char 
  arg             4   16[BANK0 ] unsigned long 
  exp             1   15[BANK0 ] unsigned char 
 Return value:  Size  Location     Type
                  4    6[BANK0 ] unsigned char 
 Registers used:
		wreg, status,2, status,0
 Tracked objects:
		On entry : 
		On exit  : 
		Unchanged: 
 Data sizes:     COMMON   BANK0   BANK1   BANK2
      Params:         0       4       0       0
      Locals:         0       6       0       0
      Temps:          0       4       0       0
      Totals:         0      14       0       0
Total ram usage:       14 bytes
 Hardware stack levels used:    1
 Hardware stack levels required when called:    2
 This function calls:
		Nothing
 This function is called by:
		_calculate_pidA
		_calculate_pidM
 This function uses a non-reentrant model


 *************** function ___fltol *****************
 Defined at:
		line 43 in file "C:\Program Files (x86)\Microchip\xc8\v2.00\pic\sources\c90\common\fltol.c"
 Parameters:    Size  Location     Type
  f1              4    2[BANK0 ] unsigned char 
 Auto vars:     Size  Location     Type
  exp1            1   11[BANK0 ] unsigned char 
  sign1           1   10[BANK0 ] unsigned char 
 Return value:  Size  Location     Type
                  4    2[BANK0 ] long 
 Registers used:
		wreg, status,2, status,0
 Tracked objects:
		On entry : 
		On exit  : 
		Unchanged: 
 Data sizes:     COMMON   BANK0   BANK1   BANK2
      Params:         0       4       0       0
      Locals:         0       2       0       0
      Temps:          0       4       0       0
      Totals:         0      10       0       0
Total ram usage:       10 bytes
 Hardware stack levels used:    1
 Hardware stack levels required when called:    2
 This function calls:
		Nothing
 This function is called by:
		_calculate_pidA
		_calculate_pidM
 This function uses a non-reentrant model


 *************** function ___flsub *****************
 Defined at:
		line 242 in file "C:\Program Files (x86)\Microchip\xc8\v2.00\pic\sources\c90\common\sprcadd.c"
 Parameters:    Size  Location     Type
  a               4   55[BANK0 ] long 
  b               4   59[BANK0 ] long 
 Auto vars:     Size  Location     Type
		None
 Return value:  Size  Location     Type
                  4   55[BANK0 ] long 
 Registers used:
		wreg, status,2, status,0, pclath, cstack
 Tracked objects:
		On entry : 
		On exit  : 
		Unchanged: 
 Data sizes:     COMMON   BANK0   BANK1   BANK2
      Params:         0       8       0       0
      Locals:         0       0       0       0
      Temps:          0       0       0       0
      Totals:         0       8       0       0
Total ram usage:        8 bytes
 Hardware stack levels used:    1
 Hardware stack levels required when called:    3
 This function calls:
		___fladd
 This function is called by:
		_calculate_pidA
		_calculate_pidM
 This function uses a non-reentrant model


 *************** function ___fladd *****************
 Defined at:
		line 10 in file "C:\Program Files (x86)\Microchip\xc8\v2.00\pic\sources\c90\common\sprcadd.c"
 Parameters:    Size  Location     Type
  b               4   35[BANK0 ] long 
  a               4   39[BANK0 ] long 
 Auto vars:     Size  Location     Type
  grs             1   54[BANK0 ] unsigned char 
  bexp            1   53[BANK0 ] unsigned char 
  aexp            1   52[BANK0 ] unsigned char 
  signs           1   51[BANK0 ] unsigned char 
 Return value:  Size  Location     Type
                  4   35[BANK0 ] unsigned char 
 Registers used:
		wreg, status,2, status,0
 Tracked objects:
		On entry : 
		On exit  : 
		Unchanged: 
 Data sizes:     COMMON   BANK0   BANK1   BANK2
      Params:         0       8       0       0
      Locals:         0       4       0       0
      Temps:          0       8       0       0
      Totals:         0      20       0       0
Total ram usage:       20 bytes
 Hardware stack levels used:    1
 Hardware stack levels required when called:    2
 This function calls:
		Nothing
 This function is called by:
		_calculate_pidA
		_calculate_pidM
		___flsub
 This function uses a non-reentrant model


 *************** function ___flmul *****************
 Defined at:
		line 8 in file "C:\Program Files (x86)\Microchip\xc8\v2.00\pic\sources\c90\common\sprcmul.c"
 Parameters:    Size  Location     Type
  b               4   10[BANK0 ] unsigned char 
  a               4   14[BANK0 ] unsigned char 
 Auto vars:     Size  Location     Type
  prod            4   29[BANK0 ] struct .
  grs             4   25[BANK0 ] unsigned long 
  temp            2   33[BANK0 ] struct .
  bexp            1   24[BANK0 ] unsigned char 
  aexp            1   23[BANK0 ] unsigned char 
  sign            1   22[BANK0 ] unsigned char 
 Return value:  Size  Location     Type
                  4   10[BANK0 ] unsigned char 
 Registers used:
		wreg, status,2, status,0, pclath, cstack
 Tracked objects:
		On entry : 
		On exit  : 
		Unchanged: 
 Data sizes:     COMMON   BANK0   BANK1   BANK2
      Params:         0       8       0       0
      Locals:         0      13       0       0
      Temps:          0       4       0       0
      Totals:         0      25       0       0
Total ram usage:       25 bytes
 Hardware stack levels used:    1
 Hardware stack levels required when called:    3
 This function calls:
		__Umul8_16
 This function is called by:
		_calculate_pidA
		_calculate_pidM
 This function uses a non-reentrant model


 *************** function __Umul8_16 *****************
 Defined at:
		line 4 in file "C:\Program Files (x86)\Microchip\xc8\v2.00\pic\sources\c90\common\Umul8_16.c"
 Parameters:    Size  Location     Type
  multiplier      1    wreg     unsigned char 
  multiplicand    1    2[BANK0 ] unsigned char 
 Auto vars:     Size  Location     Type
  multiplier      1    7[BANK0 ] unsigned char 
  word_mpld       2    8[BANK0 ] unsigned int 
  product         2    5[BANK0 ] unsigned int 
 Return value:  Size  Location     Type
                  2    2[BANK0 ] unsigned int 
 Registers used:
		wreg, status,2, status,0
 Tracked objects:
		On entry : 
		On exit  : 
		Unchanged: 
 Data sizes:     COMMON   BANK0   BANK1   BANK2
      Params:         0       3       0       0
      Locals:         0       5       0       0
      Temps:          0       0       0       0
      Totals:         0       8       0       0
Total ram usage:        8 bytes
 Hardware stack levels used:    1
 Hardware stack levels required when called:    2
 This function calls:
		Nothing
 This function is called by:
		___flmul
 This function uses a non-reentrant model


 *************** function ___flge *****************
 Defined at:
		line 4 in file "C:\Program Files (x86)\Microchip\xc8\v2.00\pic\sources\c90\common\flge.c"
 Parameters:    Size  Location     Type
  ff1             4   20[BANK0 ] unsigned int 
  ff2             4   24[BANK0 ] unsigned int 
 Auto vars:     Size  Location     Type
		None
 Return value:  Size  Location     Type
		None               void
 Registers used:
		wreg, status,2, status,0
 Tracked objects:
		On entry : 
		On exit  : 
		Unchanged: 
 Data sizes:     COMMON   BANK0   BANK1   BANK2
      Params:         0       8       0       0
      Locals:         0       0       0       0
      Temps:          0       4       0       0
      Totals:         0      12       0       0
Total ram usage:       12 bytes
 Hardware stack levels used:    1
 Hardware stack levels required when called:    2
 This function calls:
		Nothing
 This function is called by:
		_calculate_pidA
		_calculate_pidM
 This function uses a non-reentrant model


 *************** function _PWM_Init *****************
 Defined at:
		line 185 in file "main.c"
 Parameters:    Size  Location     Type
		None
 Auto vars:     Size  Location     Type
		None
 Return value:  Size  Location     Type
                  2  121[None  ] int 
 Registers used:
		wreg, status,2
 Tracked objects:
		On entry : 
		On exit  : 
		Unchanged: 
 Data sizes:     COMMON   BANK0   BANK1   BANK2
      Params:         0       0       0       0
      Locals:         0       0       0       0
      Temps:          0       0       0       0
      Totals:         0       0       0       0
Total ram usage:        0 bytes
 Hardware stack levels used:    1
 Hardware stack levels required when called:    2
 This function calls:
		Nothing
 This function is called by:
		_main
 This function uses a non-reentrant model


 *************** function _isr *****************
 Defined at:
		line 90 in file "main.c"
 Parameters:    Size  Location     Type
		None
 Auto vars:     Size  Location     Type
		None
 Return value:  Size  Location     Type
                  1    wreg      void 
 Registers used:
		wreg, fsr1l, fsr1h, status,2, status,0, pclath, cstack
 Tracked objects:
		On entry : 
		On exit  : 
		Unchanged: 
 Data sizes:     COMMON   BANK0   BANK1   BANK2
      Params:         0       0       0       0
      Locals:         0       0       0       0
      Temps:          0       2       0       0
      Totals:         0       2       0       0
Total ram usage:        2 bytes
 Hardware stack levels used:    1
 Hardware stack levels required when called:    1
 This function calls:
		___lwdiv
		i1___wmul
 This function is called by:
		Interrupt level 1
 This function uses a non-reentrant model


 *************** function i1___wmul *****************
 Defined at:
		line 15 in file "C:\Program Files (x86)\Microchip\xc8\v2.00\pic\sources\c90\common\Umul16.c"
 Parameters:    Size  Location     Type
  multiplier      2    0[COMMON] unsigned int 
  multiplicand    2    2[COMMON] unsigned int 
 Auto vars:     Size  Location     Type
  __wmul          2    4[COMMON] unsigned int 
 Return value:  Size  Location     Type
                  2    0[COMMON] unsigned int 
 Registers used:
		wreg, status,2, status,0
 Tracked objects:
		On entry : 
		On exit  : 
		Unchanged: 
 Data sizes:     COMMON   BANK0   BANK1   BANK2
      Params:         4       0       0       0
      Locals:         2       0       0       0
      Temps:          0       0       0       0
      Totals:         6       0       0       0
Total ram usage:        6 bytes
 Hardware stack levels used:    1
 This function calls:
		Nothing
 This function is called by:
		_isr
 This function uses a non-reentrant model


 *************** function ___lwdiv *****************
 Defined at:
		line 5 in file "C:\Program Files (x86)\Microchip\xc8\v2.00\pic\sources\c90\common\lwdiv.c"
 Parameters:    Size  Location     Type
  divisor         2    6[COMMON] unsigned int 
  dividend        2    8[COMMON] unsigned int 
 Auto vars:     Size  Location     Type
  quotient        2   10[COMMON] unsigned int 
  counter         1   12[COMMON] unsigned char 
 Return value:  Size  Location     Type
                  2    6[COMMON] unsigned int 
 Registers used:
		wreg, status,2, status,0
 Tracked objects:
		On entry : 
		On exit  : 
		Unchanged: 
 Data sizes:     COMMON   BANK0   BANK1   BANK2
      Params:         4       0       0       0
      Locals:         3       0       0       0
      Temps:          0       0       0       0
      Totals:         7       0       0       0
Total ram usage:        7 bytes
 Hardware stack levels used:    1
 This function calls:
		Nothing
 This function is called by:
		_isr
 This function uses a non-reentrant model



MODULE INFORMATION

Module		Function		Class		Link	Load	Size
C:\Program Files (x86)\Microchip\xc8\v2.00\pic\sources\c90\common\sprcmul.c
		___flmul       		CODE           	00D9	0000	387

C:\Program Files (x86)\Microchip\xc8\v2.00\pic\sources\c90\common\sprcmul.c estimated size: 387

C:\Program Files (x86)\Microchip\xc8\v2.00\pic\sources\c90\common\Umul16.c
		___wmul        		CODE           	05A0	0000	22

C:\Program Files (x86)\Microchip\xc8\v2.00\pic\sources\c90\common\Umul16.c estimated size: 22

C:\Program Files (x86)\Microchip\xc8\v2.00\pic\sources\c90\common\abs.c
		_abs           		CODE           	05DA	0000	15

C:\Program Files (x86)\Microchip\xc8\v2.00\pic\sources\c90\common\abs.c estimated size: 15

C:\Program Files (x86)\Microchip\xc8\v2.00\pic\sources\c90\common\lwdiv.c
		___lwdiv       		CODE           	057B	0000	38

C:\Program Files (x86)\Microchip\xc8\v2.00\pic\sources\c90\common\lwdiv.c estimated size: 38

C:\Program Files (x86)\Microchip\xc8\v2.00\pic\sources\c90\common\fltol.c
		___fltol       		CODE           	0528	0000	84

C:\Program Files (x86)\Microchip\xc8\v2.00\pic\sources\c90\common\fltol.c estimated size: 84

C:\Program Files (x86)\Microchip\xc8\v2.00\pic\sources\c90\common\flge.c
		___flge        		CODE           	04C6	0000	99

C:\Program Files (x86)\Microchip\xc8\v2.00\pic\sources\c90\common\flge.c estimated size: 99

C:\Program Files (x86)\Microchip\xc8\v2.00\pic\sources\c90\pic\__eeread.c
		_eeprom_read   		CODE           	04B4	0000	19

C:\Program Files (x86)\Microchip\xc8\v2.00\pic\sources\c90\pic\__eeread.c estimated size: 19

C:\Program Files (x86)\Microchip\xc8\v2.00\pic\sources\c90\pic\__eewrite.c
		_eeprom_write  		CODE           	0ADF	0000	30

C:\Program Files (x86)\Microchip\xc8\v2.00\pic\sources\c90\pic\__eewrite.c estimated size: 30

C:\Program Files (x86)\Microchip\xc8\v2.00\pic\sources\c90\common\sprcadd.c
		___flsub       		CODE           	02A4	0000	29
		___fladd       		CODE           	02C0	0000	337

C:\Program Files (x86)\Microchip\xc8\v2.00\pic\sources\c90\common\sprcadd.c estimated size: 366

shared
		i1___wmul      		CODE           	05B5	0000	22
		__initialization		CODE           	00C0	0000	22

shared estimated size: 44

C:\Program Files (x86)\Microchip\xc8\v2.00\pic\sources\c90\common\xxtofl.c
		___xxtofl      		CODE           	0DDC	0000	110

C:\Program Files (x86)\Microchip\xc8\v2.00\pic\sources\c90\common\xxtofl.c estimated size: 110

C:\Program Files (x86)\Microchip\xc8\v2.00\pic\sources\c90\common\Umul8_16.c
		__Umul8_16     		CODE           	025B	0000	74

C:\Program Files (x86)\Microchip\xc8\v2.00\pic\sources\c90\common\Umul8_16.c estimated size: 74

main.c
		_main          		CODE           	0806	0000	730
		_pre_pidM      		CODE           	0B34	0000	85
		_init_I2C_buffer		CODE           	0410	0000	165
		_isr           		CODE           	0004	0000	187
		_calculate_pidA		CODE           	0BA7	0000	566
		_calculate_pidM		CODE           	0E49	0000	440
		_PWM_set_duty  		CODE           	0B88	0000	32
		_PWM_Init      		CODE           	05E8	0000	13
		_M_control     		CODE           	0AFC	0000	57

main.c estimated size: 2275

